target datalayout = "e-m:e-p270:32:32-p271:32:32-p272:64:64-i64:64-i128:128-f80:128-n8:16:32:64-S128"
target triple = "x86_64-pc-linux-gnu"

; Function Attrs: nounwind uwtable
define internal i32 @asn1_item_flags_i2d(ptr noundef %0, ptr noundef %1, ptr noundef %2, i32 noundef %3) #0 {
  %5 = alloca i32, align 4
  %6 = alloca ptr, align 8
  %7 = alloca ptr, align 8
  %8 = alloca ptr, align 8
  %9 = alloca i32, align 4
  %10 = alloca ptr, align 8
  %11 = alloca ptr, align 8
  %12 = alloca i32, align 4
  %13 = alloca i32, align 4
  store ptr %0, ptr %6, align 8, !tbaa !6
  store ptr %1, ptr %7, align 8, !tbaa !11
  store ptr %2, ptr %8, align 8, !tbaa !13
  store i32 %3, ptr %9, align 4, !tbaa !15
  %14 = load ptr, ptr %7, align 8, !tbaa !11
  %15 = icmp ne ptr %14, null
  br i1 %15, label %16, label %44

16:                                               ; preds = %4
  %17 = load ptr, ptr %7, align 8, !tbaa !11
  %18 = load ptr, ptr %17, align 8, !tbaa !17
  %19 = icmp ne ptr %18, null
  br i1 %19, label %44, label %20

20:                                               ; preds = %16
  call void @llvm.lifetime.start.p0(i64 8, ptr %10) #7
  call void @llvm.lifetime.start.p0(i64 8, ptr %11) #7
  call void @llvm.lifetime.start.p0(i64 4, ptr %12) #7
  %21 = load ptr, ptr %8, align 8, !tbaa !13
  %22 = load i32, ptr %9, align 4, !tbaa !15
  %23 = call i32 @ASN1_item_ex_i2d(ptr noundef %6, ptr noundef null, ptr noundef %21, i32 noundef -1, i32 noundef %22)
  store i32 %23, ptr %12, align 4, !tbaa !15
  %24 = load i32, ptr %12, align 4, !tbaa !15
  %25 = icmp sle i32 %24, 0
  br i1 %25, label %26, label %28

26:                                               ; preds = %20
  %27 = load i32, ptr %12, align 4, !tbaa !15
  store i32 %27, ptr %5, align 4
  store i32 1, ptr %13, align 4
  br label %43

28:                                               ; preds = %20
  %29 = load i32, ptr %12, align 4, !tbaa !15
  %30 = sext i32 %29 to i64
  %31 = call noalias ptr @malloc(i64 noundef %30) #8
  store ptr %31, ptr %11, align 8, !tbaa !17
  %32 = load ptr, ptr %11, align 8, !tbaa !17
  %33 = icmp ne ptr %32, null
  br i1 %33, label %35, label %34

34:                                               ; preds = %28
  store i32 -1, ptr %5, align 4
  store i32 1, ptr %13, align 4
  br label %43

35:                                               ; preds = %28
  %36 = load ptr, ptr %11, align 8, !tbaa !17
  store ptr %36, ptr %10, align 8, !tbaa !17
  %37 = load ptr, ptr %8, align 8, !tbaa !13
  %38 = load i32, ptr %9, align 4, !tbaa !15
  %39 = call i32 @ASN1_item_ex_i2d(ptr noundef %6, ptr noundef %10, ptr noundef %37, i32 noundef -1, i32 noundef %38)
  %40 = load ptr, ptr %11, align 8, !tbaa !17
  %41 = load ptr, ptr %7, align 8, !tbaa !11
  store ptr %40, ptr %41, align 8, !tbaa !17
  %42 = load i32, ptr %12, align 4, !tbaa !15
  store i32 %42, ptr %5, align 4
  store i32 1, ptr %13, align 4
  br label %43

43:                                               ; preds = %35, %34, %26
  call void @llvm.lifetime.end.p0(i64 4, ptr %12) #7
  call void @llvm.lifetime.end.p0(i64 8, ptr %11) #7
  call void @llvm.lifetime.end.p0(i64 8, ptr %10) #7
  br label %49

44:                                               ; preds = %16, %4
  %45 = load ptr, ptr %7, align 8, !tbaa !11
  %46 = load ptr, ptr %8, align 8, !tbaa !13
  %47 = load i32, ptr %9, align 4, !tbaa !15
  %48 = call i32 @ASN1_item_ex_i2d(ptr noundef %6, ptr noundef %45, ptr noundef %46, i32 noundef -1, i32 noundef %47)
  store i32 %48, ptr %5, align 4
  br label %49

49:                                               ; preds = %44, %43
  %50 = load i32, ptr %5, align 4
  ret i32 %50
}