; Function Attrs: nounwind uwtable
define internal fastcc i32 @asn1_item_flags_i2d(ptr noundef %0, ptr noundef %1, ptr noundef %2, i32 noundef range(i32 0, 2049) %3) unnamed_addr #0 {
  %5 = alloca ptr, align 8
  %6 = alloca ptr, align 8
  store ptr %0, ptr %5, align 8, !tbaa !6
  %.not = icmp eq ptr %1, null
  br i1 %.not, label %.split, label %8

.split:                                           ; preds = %4
  %7 = call i32 @ASN1_item_ex_i2d(ptr noundef nonnull %5, ptr noundef null, ptr noundef %2, i32 noundef -1, i32 noundef %3)
  br label %20

8:                                                ; preds = %4
  %9 = load ptr, ptr %1, align 8, !tbaa !11
  %.not22 = icmp eq ptr %9, null
  br i1 %.not22, label %11, label %.split17

.split17:                                         ; preds = %8
  %10 = call i32 @ASN1_item_ex_i2d(ptr noundef nonnull %5, ptr noundef nonnull %1, ptr noundef %2, i32 noundef -1, i32 noundef %3)
  br label %20

11:                                               ; preds = %8
  call void @llvm.lifetime.start.p0(i64 8, ptr nonnull %6) #10
  %12 = call i32 @ASN1_item_ex_i2d(ptr noundef nonnull %5, ptr noundef null, ptr noundef %2, i32 noundef -1, i32 noundef %3)
  %13 = icmp slt i32 %12, 1
  br i1 %13, label %19, label %14

14:                                               ; preds = %11
  %15 = zext nneg i32 %12 to i64
  %16 = call noalias ptr @malloc(i64 noundef %15) #11
  %.not23 = icmp eq ptr %16, null
  br i1 %.not23, label %19, label %17

17:                                               ; preds = %14
  store ptr %16, ptr %6, align 8, !tbaa !11
  %18 = call i32 @ASN1_item_ex_i2d(ptr noundef nonnull %5, ptr noundef nonnull %6, ptr noundef %2, i32 noundef -1, i32 noundef %3)
  store ptr %16, ptr %1, align 8, !tbaa !11
  br label %19

19:                                               ; preds = %14, %11, %17
  %.0 = phi i32 [ %12, %17 ], [ %12, %11 ], [ -1, %14 ]
  call void @llvm.lifetime.end.p0(i64 8, ptr nonnull %6) #10
  br label %20

20:                                               ; preds = %.split, %.split17, %19
  %.1 = phi i32 [ %.0, %19 ], [ %7, %.split ], [ %10, %.split17 ]
  ret i32 %.1
}